; Function Attrs: mustprogress uwtable
define hidden void @_ZN6Assimp3MDL8HalfLife12HL1MDLLoader29build_bone_children_hierarchyERKNS2_8TempBoneE(ptr nocapture noundef nonnull readonly align 8 dereferenceable(256) %this, ptr nocapture noundef nonnull readonly align 8 dereferenceable(160) %bone) local_unnamed_addr #1 align 2 {
entry:
  %children = getelementptr inbounds i8, ptr %bone, i64 136
  %0 = load ptr, ptr %children, align 8
  %_M_finish.i.i = getelementptr inbounds i8, ptr %bone, i64 144
  %1 = load ptr, ptr %_M_finish.i.i, align 8
  %cmp.i.i = icmp eq ptr %0, %1
  br i1 %cmp.i.i, label %for.end, label %if.end

if.end:                                           ; preds = %entry
  %2 = load ptr, ptr %bone, align 8
  %sub.ptr.lhs.cast.i = ptrtoint ptr %1 to i64
  %sub.ptr.rhs.cast.i = ptrtoint ptr %0 to i64
  %sub.ptr.sub.i = sub i64 %sub.ptr.lhs.cast.i, %sub.ptr.rhs.cast.i
  %sub.ptr.div.i = lshr exact i64 %sub.ptr.sub.i, 2
  %conv = trunc i64 %sub.ptr.div.i to i32
  %mNumChildren = getelementptr inbounds i8, ptr %2, i64 1104
  store i32 %conv, ptr %mNumChildren, align 8
  %conv5 = shl i64 %sub.ptr.sub.i, 1
  %3 = and i64 %conv5, 34359738360
  %call6 = tail call noalias noundef nonnull ptr @_Znam(i64 noundef %3) #22
  %mChildren = getelementptr inbounds i8, ptr %2, i64 1112
  store ptr %call6, ptr %mChildren, align 8
  %4 = load ptr, ptr %_M_finish.i.i, align 8
  %5 = load ptr, ptr %children, align 8
  %cmp22.not = icmp eq ptr %4, %5
  br i1 %cmp22.not, label %for.end, label %for.body.lr.ph

for.body.lr.ph:                                   ; preds = %if.end
  %temp_bones_ = getelementptr inbounds i8, ptr %this, i64 224
  br label %for.body

for.body:                                         ; preds = %for.body.lr.ph, %for.body
  %6 = phi ptr [ %5, %for.body.lr.ph ], [ %12, %for.body ]
  %i.023 = phi i64 [ 0, %for.body.lr.ph ], [ %inc, %for.body ]
  %add.ptr.i = getelementptr inbounds i32, ptr %6, i64 %i.023
  %7 = load i32, ptr %add.ptr.i, align 4
  %conv11 = sext i32 %7 to i64
  %8 = load ptr, ptr %temp_bones_, align 8
  %add.ptr.i17 = getelementptr inbounds %"struct.Assimp::MDL::HalfLife::HL1MDLLoader::TempBone", ptr %8, i64 %conv11
  %9 = load ptr, ptr %add.ptr.i17, align 8
  %10 = load ptr, ptr %mChildren, align 8
  %arrayidx = getelementptr inbounds ptr, ptr %10, i64 %i.023
  store ptr %9, ptr %arrayidx, align 8
  tail call void @_ZN6Assimp3MDL8HalfLife12HL1MDLLoader29build_bone_children_hierarchyERKNS2_8TempBoneE(ptr noundef nonnull align 8 dereferenceable(256) %this, ptr noundef nonnull align 8 dereferenceable(160) %add.ptr.i17)
  %inc = add nuw i64 %i.023, 1
  %11 = load ptr, ptr %_M_finish.i.i, align 8
  %12 = load ptr, ptr %children, align 8
  %sub.ptr.lhs.cast.i13 = ptrtoint ptr %11 to i64
  %sub.ptr.rhs.cast.i14 = ptrtoint ptr %12 to i64
  %sub.ptr.sub.i15 = sub i64 %sub.ptr.lhs.cast.i13, %sub.ptr.rhs.cast.i14
  %sub.ptr.div.i16 = ashr exact i64 %sub.ptr.sub.i15, 2
  %cmp = icmp ult i64 %inc, %sub.ptr.div.i16
  br i1 %cmp, label %for.body, label %for.end, !llvm.loop !125

for.end:                                          ; preds = %for.body, %if.end, %entry
  ret void
}